target datalayout = "e-m:e-p270:32:32-p271:32:32-p272:64:64-i64:64-i128:128-f80:128-n8:16:32:64-S128"
target triple = "x86_64-pc-linux-gnu"

%union.pthread_mutex_t = type { %struct.__pthread_mutex_s }
%struct.__pthread_mutex_s = type { i32, i32, i32, i32, i32, i16, i16, %struct.__pthread_internal_list }
%struct.__pthread_internal_list = type { ptr, ptr }
%struct.wolfSSL_RefWithMutex = type { %union.pthread_mutex_t, i32 }
%struct.WOLFSSL_CTX = type <{ ptr, %struct.wolfSSL_RefWithMutex, i32, [4 x i8], %struct.WOLFSSL_BUFFER_INFO, %struct.WOLFSSL_BUFFER_INFO, ptr, ptr, i32, [4 x i8], ptr, i8, i8, [2 x i8], i32, i32, [4 x i8], ptr, ptr, ptr, i8, i16, i8, i8, i8, i16, i16, i16, i16, [2 x i8], i64, ptr, ptr, ptr, ptr, i32, i32, i16, [2 x i8], i32, [10 x i16], i8, [3 x i8], ptr, ptr, i32, [4 x i8], ptr, i8, [7 x i8] }>
%struct.WOLFSSL_BUFFER_INFO = type { ptr, i32 }

; Function Attrs: nounwind uwtable
define i32 @wolfSSL_CTX_UseClientSuites(ptr noundef %0) #0 {
  %2 = alloca i32, align 4
  %3 = alloca ptr, align 8
  store ptr %0, ptr %3, align 8, !tbaa !24
  %4 = load ptr, ptr %3, align 8, !tbaa !24
  %5 = icmp eq ptr %4, null
  br i1 %5, label %6, label %7

6:                                                ; preds = %1
  store i32 -173, ptr %2, align 4
  br label %13

7:                                                ; preds = %1
  %8 = load ptr, ptr %3, align 8, !tbaa !24
  %9 = getelementptr inbounds nuw %struct.WOLFSSL_CTX, ptr %8, i32 0, i32 24
  %10 = load i8, ptr %9, align 1
  %11 = and i8 %10, -3
  %12 = or i8 %11, 2
  store i8 %12, ptr %9, align 1
  store i32 0, ptr %2, align 4
  br label %13

13:                                               ; preds = %7, %6
  %14 = load i32, ptr %2, align 4
  ret i32 %14
}